target datalayout = "e-m:e-p270:32:32-p271:32:32-p272:64:64-i64:64-i128:128-f80:128-n8:16:32:64-S128"
target triple = "x86_64-pc-linux-gnu"

@hf_mount_pathconf_link_max = internal global i32 0, align 4
@hf_mount_pathconf_max_canon = internal global i32 0, align 4
@hf_mount_pathconf_max_input = internal global i32 0, align 4
@hf_mount_pathconf_name_max = internal global i32 0, align 4
@hf_mount_pathconf_path_max = internal global i32 0, align 4
@hf_mount_pathconf_pipe_buf = internal global i32 0, align 4
@hf_mount_pathconf_vdisable = internal global i32 0, align 4
@hf_mount_pathconf_mask = internal global i32 0, align 4
@ett_mount_pathconf_mask = internal global i32 0, align 4

; Function Attrs: null_pointer_is_valid sspstrong uwtable
define internal i32 @dissect_mount_pathconf_reply(ptr noundef %0, ptr noundef %1, ptr noundef %2, ptr noundef %3) #0 {
  %5 = alloca ptr, align 8
  %6 = alloca ptr, align 8
  %7 = alloca ptr, align 8
  %8 = alloca ptr, align 8
  %9 = alloca i32, align 4
  %10 = alloca i32, align 4
  store ptr %0, ptr %5, align 8
  store ptr %1, ptr %6, align 8
  store ptr %2, ptr %7, align 8
  store ptr %3, ptr %8, align 8
  call void @llvm.lifetime.start.p0(i64 4, ptr %9) #5
  call void @llvm.lifetime.start.p0(i64 4, ptr %10) #5
  store i32 0, ptr %10, align 4
  %11 = load ptr, ptr %5, align 8
  %12 = load i32, ptr %10, align 4
  %13 = add i32 %12, 32
  %14 = call i32 @tvb_get_ntohl(ptr noundef %11, i32 noundef %13)
  %15 = and i32 %14, 65535
  store i32 %15, ptr %9, align 4
  %16 = load i32, ptr %9, align 4
  %17 = and i32 %16, 3
  %18 = icmp ne i32 %17, 0
  br i1 %18, label %25, label %19

19:                                               ; preds = %4
  %20 = load ptr, ptr %5, align 8
  %21 = load ptr, ptr %7, align 8
  %22 = load i32, ptr @hf_mount_pathconf_link_max, align 4
  %23 = load i32, ptr %10, align 4
  %24 = call i32 @dissect_rpc_uint32(ptr noundef %20, ptr noundef %21, i32 noundef %22, i32 noundef %23)
  br label %25

25:                                               ; preds = %19, %4
  %26 = load i32, ptr %10, align 4
  %27 = add i32 %26, 4
  store i32 %27, ptr %10, align 4
  %28 = load i32, ptr %9, align 4
  %29 = and i32 %28, 5
  %30 = icmp ne i32 %29, 0
  br i1 %30, label %43, label %31

31:                                               ; preds = %25
  %32 = load ptr, ptr %7, align 8
  %33 = load i32, ptr @hf_mount_pathconf_max_canon, align 4
  %34 = load ptr, ptr %5, align 8
  %35 = load i32, ptr %10, align 4
  %36 = add i32 %35, 2
  %37 = load ptr, ptr %5, align 8
  %38 = load i32, ptr %10, align 4
  %39 = call zeroext i16 @tvb_get_ntohs(ptr noundef %37, i32 noundef %38)
  %40 = zext i16 %39 to i32
  %41 = and i32 %40, 65535
  %42 = call ptr @proto_tree_add_item(ptr noundef %32, i32 noundef %33, ptr noundef %34, i32 noundef %36, i32 noundef 2, i32 noundef %41)
  br label %43

43:                                               ; preds = %31, %25
  %44 = load i32, ptr %10, align 4
  %45 = add i32 %44, 4
  store i32 %45, ptr %10, align 4
  %46 = load i32, ptr %9, align 4
  %47 = and i32 %46, 9
  %48 = icmp ne i32 %47, 0
  br i1 %48, label %61, label %49

49:                                               ; preds = %43
  %50 = load ptr, ptr %7, align 8
  %51 = load i32, ptr @hf_mount_pathconf_max_input, align 4
  %52 = load ptr, ptr %5, align 8
  %53 = load i32, ptr %10, align 4
  %54 = add i32 %53, 2
  %55 = load ptr, ptr %5, align 8
  %56 = load i32, ptr %10, align 4
  %57 = call zeroext i16 @tvb_get_ntohs(ptr noundef %55, i32 noundef %56)
  %58 = zext i16 %57 to i32
  %59 = and i32 %58, 65535
  %60 = call ptr @proto_tree_add_item(ptr noundef %50, i32 noundef %51, ptr noundef %52, i32 noundef %54, i32 noundef 2, i32 noundef %59)
  br label %61

61:                                               ; preds = %49, %43
  %62 = load i32, ptr %10, align 4
  %63 = add i32 %62, 4
  store i32 %63, ptr %10, align 4
  %64 = load i32, ptr %9, align 4
  %65 = and i32 %64, 17
  %66 = icmp ne i32 %65, 0
  br i1 %66, label %79, label %67

67:                                               ; preds = %61
  %68 = load ptr, ptr %7, align 8
  %69 = load i32, ptr @hf_mount_pathconf_name_max, align 4
  %70 = load ptr, ptr %5, align 8
  %71 = load i32, ptr %10, align 4
  %72 = add i32 %71, 2
  %73 = load ptr, ptr %5, align 8
  %74 = load i32, ptr %10, align 4
  %75 = call zeroext i16 @tvb_get_ntohs(ptr noundef %73, i32 noundef %74)
  %76 = zext i16 %75 to i32
  %77 = and i32 %76, 65535
  %78 = call ptr @proto_tree_add_item(ptr noundef %68, i32 noundef %69, ptr noundef %70, i32 noundef %72, i32 noundef 2, i32 noundef %77)
  br label %79

79:                                               ; preds = %67, %61
  %80 = load i32, ptr %10, align 4
  %81 = add i32 %80, 4
  store i32 %81, ptr %10, align 4
  %82 = load i32, ptr %9, align 4
  %83 = and i32 %82, 33
  %84 = icmp ne i32 %83, 0
  br i1 %84, label %97, label %85

85:                                               ; preds = %79
  %86 = load ptr, ptr %7, align 8
  %87 = load i32, ptr @hf_mount_pathconf_path_max, align 4
  %88 = load ptr, ptr %5, align 8
  %89 = load i32, ptr %10, align 4
  %90 = add i32 %89, 2
  %91 = load ptr, ptr %5, align 8
  %92 = load i32, ptr %10, align 4
  %93 = call zeroext i16 @tvb_get_ntohs(ptr noundef %91, i32 noundef %92)
  %94 = zext i16 %93 to i32
  %95 = and i32 %94, 65535
  %96 = call ptr @proto_tree_add_item(ptr noundef %86, i32 noundef %87, ptr noundef %88, i32 noundef %90, i32 noundef 2, i32 noundef %95)
  br label %97

97:                                               ; preds = %85, %79
  %98 = load i32, ptr %10, align 4
  %99 = add i32 %98, 4
  store i32 %99, ptr %10, align 4
  %100 = load i32, ptr %9, align 4
  %101 = and i32 %100, 65
  %102 = icmp ne i32 %101, 0
  br i1 %102, label %115, label %103

103:                                              ; preds = %97
  %104 = load ptr, ptr %7, align 8
  %105 = load i32, ptr @hf_mount_pathconf_pipe_buf, align 4
  %106 = load ptr, ptr %5, align 8
  %107 = load i32, ptr %10, align 4
  %108 = add i32 %107, 2
  %109 = load ptr, ptr %5, align 8
  %110 = load i32, ptr %10, align 4
  %111 = call zeroext i16 @tvb_get_ntohs(ptr noundef %109, i32 noundef %110)
  %112 = zext i16 %111 to i32
  %113 = and i32 %112, 65535
  %114 = call ptr @proto_tree_add_item(ptr noundef %104, i32 noundef %105, ptr noundef %106, i32 noundef %108, i32 noundef 2, i32 noundef %113)
  br label %115

115:                                              ; preds = %103, %97
  %116 = load i32, ptr %10, align 4
  %117 = add i32 %116, 4
  store i32 %117, ptr %10, align 4
  %118 = load i32, ptr %10, align 4
  %119 = add i32 %118, 4
  store i32 %119, ptr %10, align 4
  %120 = load i32, ptr %9, align 4
  %121 = and i32 %120, 513
  %122 = icmp ne i32 %121, 0
  br i1 %122, label %135, label %123

123:                                              ; preds = %115
  %124 = load ptr, ptr %7, align 8
  %125 = load i32, ptr @hf_mount_pathconf_vdisable, align 4
  %126 = load ptr, ptr %5, align 8
  %127 = load i32, ptr %10, align 4
  %128 = add i32 %127, 3
  %129 = load ptr, ptr %5, align 8
  %130 = load i32, ptr %10, align 4
  %131 = call zeroext i16 @tvb_get_ntohs(ptr noundef %129, i32 noundef %130)
  %132 = zext i16 %131 to i32
  %133 = and i32 %132, 65535
  %134 = call ptr @proto_tree_add_item(ptr noundef %124, i32 noundef %125, ptr noundef %126, i32 noundef %128, i32 noundef 1, i32 noundef %133)
  br label %135

135:                                              ; preds = %123, %115
  %136 = load i32, ptr %10, align 4
  %137 = add i32 %136, 4
  store i32 %137, ptr %10, align 4
  %138 = load ptr, ptr %7, align 8
  %139 = load ptr, ptr %5, align 8
  %140 = load i32, ptr %10, align 4
  %141 = add i32 %140, 2
  %142 = load i32, ptr @hf_mount_pathconf_mask, align 4
  %143 = load i32, ptr @ett_mount_pathconf_mask, align 4
  %144 = call ptr @proto_tree_add_bitmask(ptr noundef %138, ptr noundef %139, i32 noundef %141, i32 noundef %142, i32 noundef %143, ptr noundef @dissect_mount_pathconf_reply.flags, i32 noundef 0)
  %145 = load i32, ptr %10, align 4
  %146 = add i32 %145, 8
  store i32 %146, ptr %10, align 4
  %147 = load i32, ptr %10, align 4
  call void @llvm.lifetime.end.p0(i64 4, ptr %10) #5
  call void @llvm.lifetime.end.p0(i64 4, ptr %9) #5
  ret i32 %147
}