; Function Attrs: null_pointer_is_valid sspstrong uwtable
define internal noundef i32 @dissect_mount_pathconf_reply(ptr noundef %0, ptr readnone captures(none) %1, ptr noundef %2, ptr readnone captures(none) %3) #0 {
  %5 = tail call i32 @tvb_get_ntohl(ptr noundef %0, i32 noundef 32)
  %6 = and i32 %5, 3
  %.not = icmp eq i32 %6, 0
  br i1 %.not, label %7, label %10

7:                                                ; preds = %4
  %8 = load i32, ptr @hf_mount_pathconf_link_max, align 4
  %9 = tail call i32 @dissect_rpc_uint32(ptr noundef %0, ptr noundef %2, i32 noundef %8, i32 noundef 0)
  br label %10

10:                                               ; preds = %7, %4
  %11 = and i32 %5, 5
  %.not54 = icmp eq i32 %11, 0
  br i1 %.not54, label %12, label %17

12:                                               ; preds = %10
  %13 = load i32, ptr @hf_mount_pathconf_max_canon, align 4
  %14 = tail call zeroext i16 @tvb_get_ntohs(ptr noundef %0, i32 noundef 4)
  %15 = zext i16 %14 to i32
  %16 = tail call ptr @proto_tree_add_item(ptr noundef %2, i32 noundef %13, ptr noundef %0, i32 noundef 6, i32 noundef 2, i32 noundef %15)
  br label %17

17:                                               ; preds = %12, %10
  %18 = and i32 %5, 9
  %.not55 = icmp eq i32 %18, 0
  br i1 %.not55, label %19, label %24

19:                                               ; preds = %17
  %20 = load i32, ptr @hf_mount_pathconf_max_input, align 4
  %21 = tail call zeroext i16 @tvb_get_ntohs(ptr noundef %0, i32 noundef 8)
  %22 = zext i16 %21 to i32
  %23 = tail call ptr @proto_tree_add_item(ptr noundef %2, i32 noundef %20, ptr noundef %0, i32 noundef 10, i32 noundef 2, i32 noundef %22)
  br label %24

24:                                               ; preds = %19, %17
  %25 = and i32 %5, 17
  %.not56 = icmp eq i32 %25, 0
  br i1 %.not56, label %26, label %31

26:                                               ; preds = %24
  %27 = load i32, ptr @hf_mount_pathconf_name_max, align 4
  %28 = tail call zeroext i16 @tvb_get_ntohs(ptr noundef %0, i32 noundef 12)
  %29 = zext i16 %28 to i32
  %30 = tail call ptr @proto_tree_add_item(ptr noundef %2, i32 noundef %27, ptr noundef %0, i32 noundef 14, i32 noundef 2, i32 noundef %29)
  br label %31

31:                                               ; preds = %26, %24
  %32 = and i32 %5, 33
  %.not57 = icmp eq i32 %32, 0
  br i1 %.not57, label %33, label %38

33:                                               ; preds = %31
  %34 = load i32, ptr @hf_mount_pathconf_path_max, align 4
  %35 = tail call zeroext i16 @tvb_get_ntohs(ptr noundef %0, i32 noundef 16)
  %36 = zext i16 %35 to i32
  %37 = tail call ptr @proto_tree_add_item(ptr noundef %2, i32 noundef %34, ptr noundef %0, i32 noundef 18, i32 noundef 2, i32 noundef %36)
  br label %38

38:                                               ; preds = %33, %31
  %39 = and i32 %5, 65
  %.not58 = icmp eq i32 %39, 0
  br i1 %.not58, label %40, label %45

40:                                               ; preds = %38
  %41 = load i32, ptr @hf_mount_pathconf_pipe_buf, align 4
  %42 = tail call zeroext i16 @tvb_get_ntohs(ptr noundef %0, i32 noundef 20)
  %43 = zext i16 %42 to i32
  %44 = tail call ptr @proto_tree_add_item(ptr noundef %2, i32 noundef %41, ptr noundef %0, i32 noundef 22, i32 noundef 2, i32 noundef %43)
  br label %45

45:                                               ; preds = %40, %38
  %46 = and i32 %5, 513
  %.not59 = icmp eq i32 %46, 0
  br i1 %.not59, label %47, label %52

47:                                               ; preds = %45
  %48 = load i32, ptr @hf_mount_pathconf_vdisable, align 4
  %49 = tail call zeroext i16 @tvb_get_ntohs(ptr noundef %0, i32 noundef 28)
  %50 = zext i16 %49 to i32
  %51 = tail call ptr @proto_tree_add_item(ptr noundef %2, i32 noundef %48, ptr noundef %0, i32 noundef 31, i32 noundef 1, i32 noundef %50)
  br label %52

52:                                               ; preds = %47, %45
  %53 = load i32, ptr @hf_mount_pathconf_mask, align 4
  %54 = load i32, ptr @ett_mount_pathconf_mask, align 4
  %55 = tail call ptr @proto_tree_add_bitmask(ptr noundef %2, ptr noundef %0, i32 noundef 34, i32 noundef %53, i32 noundef %54, ptr noundef nonnull @dissect_mount_pathconf_reply.flags, i32 noundef 0)
  ret i32 40
}